; Function Attrs: nounwind uwtable
define dso_local ptr @acct_storage_p_modify_qos(ptr noundef %0, i32 noundef %1, ptr noundef %2, ptr noundef %3) local_unnamed_addr #0 {
  %5 = alloca %struct.persist_msg_t, align 8
  %6 = alloca %struct.persist_msg_t, align 8
  %7 = alloca %struct.dbd_modify_msg_t, align 8
  call void @llvm.lifetime.start.p0(i64 24, ptr nonnull %5) #11
  %8 = getelementptr inbounds nuw i8, ptr %5, i64 16
  store i64 0, ptr %8, align 8
  call void @llvm.lifetime.start.p0(i64 24, ptr nonnull %6) #11
  call void @llvm.memset.p0.i64(ptr noundef nonnull align 8 dereferenceable(24) %6, i8 0, i64 24, i1 false)
  call void @llvm.lifetime.start.p0(i64 16, ptr nonnull %7) #11
  store ptr %2, ptr %7, align 8
  %9 = getelementptr inbounds nuw i8, ptr %7, i64 8
  store ptr %3, ptr %9, align 8
  %10 = getelementptr inbounds nuw i8, ptr %5, i64 16
  store i16 1451, ptr %10, align 8
  store ptr %0, ptr %5, align 8
  %11 = getelementptr inbounds nuw i8, ptr %5, i64 8
  store ptr %7, ptr %11, align 8
  %12 = call i32 @dbd_conn_send_recv(i16 noundef zeroext 11008, ptr noundef nonnull %5, ptr noundef nonnull %6) #11
  %.not = icmp eq i32 %12, 0
  br i1 %.not, label %15, label %13

13:                                               ; preds = %4
  %14 = call i32 (ptr, ...) @slurm_error(ptr noundef nonnull @.str.14) #11
  br label %40

15:                                               ; preds = %4
  %16 = getelementptr inbounds nuw i8, ptr %6, i64 16
  %17 = load i16, ptr %16, align 8
  switch i16 %17, label %33 [
    i16 1433, label %18
    i16 1422, label %36
  ]

18:                                               ; preds = %15
  %19 = getelementptr inbounds nuw i8, ptr %6, i64 8
  %20 = load ptr, ptr %19, align 8
  %21 = getelementptr inbounds nuw i8, ptr %20, i64 12
  %22 = load i32, ptr %21, align 4
  %23 = icmp eq i32 %22, 0
  br i1 %23, label %24, label %27

24:                                               ; preds = %18
  %25 = load ptr, ptr %20, align 8
  call void (i32, ptr, ...) @slurm_log_var(i32 noundef 3, ptr noundef nonnull @.str.7, ptr noundef %25) #11
  %26 = call ptr @slurm_list_create(ptr noundef null) #11
  br label %32

27:                                               ; preds = %18
  %28 = tail call ptr @__errno_location() #12
  store i32 %22, ptr %28, align 4
  %.not15 = icmp eq i32 %22, 1900
  br i1 %.not15, label %32, label %29

29:                                               ; preds = %27
  %30 = load ptr, ptr %20, align 8
  %31 = call i32 (ptr, ...) @slurm_error(ptr noundef nonnull @.str.7, ptr noundef %30) #11
  br label %32

32:                                               ; preds = %27, %29, %24
  %.1 = phi ptr [ %26, %24 ], [ null, %29 ], [ null, %27 ]
  call void @slurm_persist_free_rc_msg(ptr noundef nonnull %20) #11
  br label %40

33:                                               ; preds = %15
  %34 = zext i16 %17 to i32
  %35 = call i32 (ptr, ...) @slurm_error(ptr noundef nonnull @.str.8, i32 noundef %34) #11
  br label %40

36:                                               ; preds = %15
  %37 = getelementptr inbounds nuw i8, ptr %6, i64 8
  %38 = load ptr, ptr %37, align 8
  %39 = load ptr, ptr %38, align 8
  store ptr null, ptr %38, align 8
  call void @slurm_slurmdbd_free_list_msg(ptr noundef nonnull %38) #11
  br label %40

40:                                               ; preds = %32, %36, %33, %13
  %.0 = phi ptr [ null, %13 ], [ %.1, %32 ], [ null, %33 ], [ %39, %36 ]
  call void @llvm.lifetime.end.p0(i64 16, ptr nonnull %7) #11
  call void @llvm.lifetime.end.p0(i64 24, ptr nonnull %6) #11
  call void @llvm.lifetime.end.p0(i64 24, ptr nonnull %5) #11
  ret ptr %.0
}